; Function Attrs: nounwind uwtable
define hidden range(i32 -1, 1) i32 @_PyTestCapi_Init_Monitoring(ptr noundef %0) local_unnamed_addr #0 {
  %2 = tail call i32 @PyType_Ready(ptr noundef nonnull @PyCodeLike_Type) #4
  %3 = icmp slt i32 %2, 0
  br i1 %3, label %Py_DECREF.exit, label %4

4:                                                ; preds = %1
  %5 = tail call i32 @PyModule_AddObjectRef(ptr noundef %0, ptr noundef nonnull @.str, ptr noundef nonnull @PyCodeLike_Type) #4
  %6 = icmp slt i32 %5, 0
  br i1 %6, label %7, label %13

7:                                                ; preds = %4
  %8 = load i32, ptr %0, align 8, !tbaa !3
  %.not.i = icmp sgt i32 %8, -1
  br i1 %.not.i, label %9, label %Py_DECREF.exit

9:                                                ; preds = %7
  %10 = add nsw i32 %8, -1
  store i32 %10, ptr %0, align 8, !tbaa !3
  %11 = icmp eq i32 %10, 0
  br i1 %11, label %12, label %Py_DECREF.exit

12:                                               ; preds = %9
  tail call void @_Py_Dealloc(ptr noundef nonnull %0) #4
  br label %Py_DECREF.exit

13:                                               ; preds = %4
  %14 = tail call i32 @PyModule_AddFunctions(ptr noundef %0, ptr noundef nonnull @TestMethods) #4
  %.lobit = ashr i32 %14, 31
  br label %Py_DECREF.exit

Py_DECREF.exit:                                   ; preds = %12, %9, %7, %13, %1
  %.0 = phi i32 [ -1, %1 ], [ %.lobit, %13 ], [ -1, %7 ], [ -1, %9 ], [ -1, %12 ]
  ret i32 %.0
}